; Function Attrs: mustprogress uwtable
define void @_ZN22AmbientOcclusionPlugin16dumpFloatTextureE7QStringPfi(ptr nocapture noundef nonnull readnone align 8 dereferenceable(185) %0, ptr noundef %1, ptr nocapture noundef readonly %2, i32 noundef %3) local_unnamed_addr #9 align 2 personality ptr @__gxx_personality_v0 {
  %5 = alloca %class.QByteArray, align 8
  %6 = sext i32 %3 to i64
  %7 = tail call noalias noundef nonnull ptr @_Znam(i64 noundef %6) #29
  %8 = icmp sgt i32 %3, 0
  br i1 %8, label %.lr.ph.preheader, label %._crit_edge

.lr.ph.preheader:                                 ; preds = %4
  %wide.trip.count = zext nneg i32 %3 to i64
  br label %.lr.ph

.lr.ph:                                           ; preds = %.lr.ph.preheader, %.lr.ph
  %indvars.iv = phi i64 [ 0, %.lr.ph.preheader ], [ %indvars.iv.next, %.lr.ph ]
  %9 = getelementptr inbounds float, ptr %2, i64 %indvars.iv
  %10 = load float, ptr %9, align 4
  %11 = fpext float %10 to double
  %12 = fmul double %11, 2.550000e+02
  %13 = fptoui double %12 to i8
  %14 = getelementptr inbounds i8, ptr %7, i64 %indvars.iv
  store i8 %13, ptr %14, align 1
  %indvars.iv.next = add nuw nsw i64 %indvars.iv, 1
  %exitcond.not = icmp eq i64 %indvars.iv.next, %wide.trip.count
  br i1 %exitcond.not, label %._crit_edge, label %.lr.ph, !llvm.loop !184

._crit_edge:                                      ; preds = %.lr.ph, %4
  call void @_ZN7QString13toUtf8_helperERKS_(ptr dead_on_unwind nonnull writable sret(%class.QByteArray) align 8 %5, ptr noundef nonnull align 8 dereferenceable(8) %1)
  %15 = load ptr, ptr %5, align 8
  %16 = getelementptr inbounds i8, ptr %15, i64 16
  %17 = load i64, ptr %16, align 8
  %18 = getelementptr inbounds i8, ptr %15, i64 %17
  %19 = call noalias ptr @fopen(ptr noundef %18, ptr noundef nonnull @.str.106)
  %20 = load ptr, ptr %5, align 8
  %21 = load atomic i32, ptr %20 monotonic, align 4
  switch i32 %21, label %_ZN9QtPrivate8RefCount5derefEv.exit.i [
    i32 0, label %_ZN9QtPrivate8RefCount5derefEv.exit.thread2.i
    i32 -1, label %_ZN10QByteArrayD2Ev.exit
  ]

_ZN9QtPrivate8RefCount5derefEv.exit.i:            ; preds = %._crit_edge
  %22 = atomicrmw sub ptr %20, i32 1 seq_cst, align 4
  %.not.i = icmp eq i32 %22, 1
  br i1 %.not.i, label %_ZN9QtPrivate8RefCount5derefEv.exit._ZN9QtPrivate8RefCount5derefEv.exit.thread2_crit_edge.i, label %_ZN10QByteArrayD2Ev.exit

_ZN9QtPrivate8RefCount5derefEv.exit._ZN9QtPrivate8RefCount5derefEv.exit.thread2_crit_edge.i: ; preds = %_ZN9QtPrivate8RefCount5derefEv.exit.i
  %.pre.i = load ptr, ptr %5, align 8
  br label %_ZN9QtPrivate8RefCount5derefEv.exit.thread2.i

_ZN9QtPrivate8RefCount5derefEv.exit.thread2.i:    ; preds = %_ZN9QtPrivate8RefCount5derefEv.exit._ZN9QtPrivate8RefCount5derefEv.exit.thread2_crit_edge.i, %._crit_edge
  %23 = phi ptr [ %.pre.i, %_ZN9QtPrivate8RefCount5derefEv.exit._ZN9QtPrivate8RefCount5derefEv.exit.thread2_crit_edge.i ], [ %20, %._crit_edge ]
  call void @_ZN10QArrayData10deallocateEPS_mm(ptr noundef %23, i64 noundef 1, i64 noundef 8) #26
  br label %_ZN10QByteArrayD2Ev.exit

_ZN10QByteArrayD2Ev.exit:                         ; preds = %._crit_edge, %_ZN9QtPrivate8RefCount5derefEv.exit.i, %_ZN9QtPrivate8RefCount5derefEv.exit.thread2.i
  %24 = call i64 @fwrite(ptr noundef nonnull %7, i64 noundef 1, i64 noundef %6, ptr noundef %19)
  %25 = call i32 @fclose(ptr noundef %19)
  call void @_ZdaPv(ptr noundef nonnull %7) #25
  ret void
}